target datalayout = "e-m:e-p270:32:32-p271:32:32-p272:64:64-i64:64-i128:128-f80:128-n8:16:32:64-S128"
target triple = "x86_64-pc-linux-gnu"

; Function Attrs: nounwind uwtable
define hidden zeroext i8 @lxb_encoding_decode_utf_8_length(i8 noundef zeroext %0) #0 {
  %2 = alloca i8, align 1
  %3 = alloca i8, align 1
  store i8 %0, ptr %3, align 1, !tbaa !27
  %4 = load i8, ptr %3, align 1, !tbaa !27
  %5 = zext i8 %4 to i32
  %6 = icmp slt i32 %5, 128
  br i1 %6, label %7, label %8

7:                                                ; preds = %1
  store i8 1, ptr %2, align 1
  br label %30

8:                                                ; preds = %1
  %9 = load i8, ptr %3, align 1, !tbaa !27
  %10 = zext i8 %9 to i32
  %11 = and i32 %10, 224
  %12 = icmp eq i32 %11, 192
  br i1 %12, label %13, label %14

13:                                               ; preds = %8
  store i8 2, ptr %2, align 1
  br label %30

14:                                               ; preds = %8
  %15 = load i8, ptr %3, align 1, !tbaa !27
  %16 = zext i8 %15 to i32
  %17 = and i32 %16, 240
  %18 = icmp eq i32 %17, 224
  br i1 %18, label %19, label %20

19:                                               ; preds = %14
  store i8 3, ptr %2, align 1
  br label %30

20:                                               ; preds = %14
  %21 = load i8, ptr %3, align 1, !tbaa !27
  %22 = zext i8 %21 to i32
  %23 = and i32 %22, 248
  %24 = icmp eq i32 %23, 240
  br i1 %24, label %25, label %26

25:                                               ; preds = %20
  store i8 4, ptr %2, align 1
  br label %30

26:                                               ; preds = %20
  br label %27

27:                                               ; preds = %26
  br label %28

28:                                               ; preds = %27
  br label %29

29:                                               ; preds = %28
  store i8 0, ptr %2, align 1
  br label %30

30:                                               ; preds = %29, %25, %19, %13, %7
  %31 = load i8, ptr %2, align 1
  ret i8 %31
}