; Function Attrs: mustprogress nofree norecurse nosync nounwind willreturn memory(none) uwtable
define hidden zeroext range(i8 0, 5) i8 @lxb_encoding_decode_utf_8_length(i8 noundef zeroext %0) local_unnamed_addr #6 {
  %2 = zext i8 %0 to i32
  %3 = icmp sgt i8 %0, -1
  br i1 %3, label %13, label %4

4:                                                ; preds = %1
  %5 = and i32 %2, 224
  %6 = icmp eq i32 %5, 192
  br i1 %6, label %13, label %7

7:                                                ; preds = %4
  %8 = and i32 %2, 240
  %9 = icmp eq i32 %8, 224
  br i1 %9, label %13, label %10

10:                                               ; preds = %7
  %11 = and i32 %2, 248
  %12 = icmp eq i32 %11, 240
  %. = select i1 %12, i8 4, i8 0
  br label %13

13:                                               ; preds = %10, %7, %4, %1
  %.0 = phi i8 [ 1, %1 ], [ 2, %4 ], [ 3, %7 ], [ %., %10 ]
  ret i8 %.0
}